; Function Attrs: mustprogress nounwind uwtable
define hidden void @_ZN11BoxLockNodeC2Ei(ptr noundef nonnull align 8 dereferenceable(156) %0, i32 noundef %1) unnamed_addr #2 align 2 {
  %3 = tail call align 8 ptr @llvm.threadlocal.address.p0(ptr align 8 @_ZN6Thread12_thr_currentE)
  %4 = load ptr, ptr %3, align 8
  %5 = getelementptr inbounds i8, ptr %4, i64 1808
  %6 = load ptr, ptr %5, align 8
  %7 = getelementptr inbounds i8, ptr %6, i64 128
  %8 = load ptr, ptr %7, align 8
  %9 = getelementptr inbounds i8, ptr %8, i64 736
  %10 = load ptr, ptr %9, align 8
  tail call void @_ZN4NodeC2EPS_(ptr noundef nonnull align 8 dereferenceable(52) %0, ptr noundef %10) #8
  store ptr getelementptr inbounds inrange(-16, 192) (i8, ptr @_ZTV11BoxLockNode, i64 16), ptr %0, align 8
  %11 = getelementptr inbounds i8, ptr %0, i64 52
  store i32 %1, ptr %11, align 4
  %12 = getelementptr inbounds i8, ptr %0, i64 56
  tail call void @llvm.memset.p0.i64(ptr noundef nonnull align 8 dereferenceable(88) %12, i8 0, i64 88, i1 false)
  %13 = getelementptr inbounds i8, ptr %0, i64 144
  store i32 10, ptr %13, align 8
  %14 = getelementptr inbounds i8, ptr %0, i64 148
  store i32 0, ptr %14, align 4
  %15 = getelementptr inbounds i8, ptr %0, i64 152
  store i32 0, ptr %15, align 8
  %16 = getelementptr inbounds i8, ptr %0, i64 44
  store i32 1024, ptr %16, align 4
  %17 = getelementptr inbounds i8, ptr %0, i64 48
  %18 = load i32, ptr %17, align 8
  %19 = or i32 %18, 2
  store i32 %19, ptr %17, align 8
  %20 = add nsw i32 %1, 616
  %21 = load ptr, ptr %3, align 8
  %22 = getelementptr inbounds i8, ptr %21, i64 1808
  %23 = load ptr, ptr %22, align 8
  %24 = getelementptr inbounds i8, ptr %23, i64 128
  %25 = load ptr, ptr %24, align 8
  %26 = tail call noundef i32 @_ZNK7Compile16sync_stack_slotsEv(ptr noundef nonnull align 8 dereferenceable(2316) %25) #8
  %27 = tail call noundef i32 @llvm.umax.i32(i32 %26, i32 1)
  %28 = sub i32 704, %27
  %29 = icmp sgt i32 %28, %20
  br i1 %29, label %38, label %30

30:                                               ; preds = %2
  %31 = load ptr, ptr %3, align 8
  %32 = getelementptr inbounds i8, ptr %31, i64 1808
  %33 = load ptr, ptr %32, align 8
  %34 = getelementptr inbounds i8, ptr %33, i64 128
  %35 = load ptr, ptr %34, align 8
  %36 = getelementptr inbounds i8, ptr %35, i64 352
  %37 = load ptr, ptr %36, align 8
  tail call void @_ZN5ciEnv28record_method_not_compilableEPKcb(ptr noundef nonnull align 8 dereferenceable(1265) %37, ptr noundef nonnull @.str, i1 noundef zeroext false) #8
  tail call void @_ZN7Compile14record_failureEPKc(ptr noundef nonnull align 8 dereferenceable(2316) %35, ptr noundef nonnull @.str) #8
  br label %54

38:                                               ; preds = %2
  %39 = lshr i32 %20, 6
  %40 = load i32, ptr %14, align 4
  %41 = icmp ugt i32 %39, %40
  br i1 %41, label %42, label %43

42:                                               ; preds = %38
  store i32 %39, ptr %14, align 4
  br label %43

43:                                               ; preds = %42, %38
  %44 = load i32, ptr %13, align 8
  %45 = icmp ult i32 %39, %44
  br i1 %45, label %46, label %_ZN7RegMask6InsertEi.exit

46:                                               ; preds = %43
  store i32 %39, ptr %13, align 8
  br label %_ZN7RegMask6InsertEi.exit

_ZN7RegMask6InsertEi.exit:                        ; preds = %43, %46
  %47 = and i32 %20, 63
  %48 = zext nneg i32 %47 to i64
  %49 = shl nuw i64 1, %48
  %50 = zext nneg i32 %39 to i64
  %51 = getelementptr inbounds [11 x i64], ptr %12, i64 0, i64 %50
  %52 = load i64, ptr %51, align 8
  %53 = or i64 %52, %49
  store i64 %53, ptr %51, align 8
  br label %54

54:                                               ; preds = %_ZN7RegMask6InsertEi.exit, %30
  ret void
}